target datalayout = "e-m:e-p270:32:32-p271:32:32-p272:64:64-i64:64-i128:128-f80:128-n8:16:32:64-S128"
target triple = "x86_64-pc-linux-gnu"

%struct.H5FL_reg_head_t = type { i8, i32, i32, ptr, i64, ptr }
%struct.H5VL_t = type { ptr, i64, i64 }

@H5_H5VL_t_reg_free_list = global %struct.H5FL_reg_head_t { i8 0, i32 0, i32 0, ptr @.str, i64 24, ptr null }, align 8
@.str.2 = private unnamed_addr constant [101 x i8] c"generated/home/dtcxzyw/WorkSpace/Projects/compilers/llvm-opt-benchmark/bench/hdf5/hdf5/src/H5VLint.c\00", align 1
@H5E_VOL_g = external global i64, align 8
@H5E_CANTREGISTER_g = external global i64, align 8
@H5E_CANTDEC_g = external global i64, align 8
@__func__.H5VL_register = private unnamed_addr constant [14 x i8] c"H5VL_register\00", align 1
@H5E_CANTCREATE_g = external global i64, align 8
@.str.40 = private unnamed_addr constant [24 x i8] c"can't create VOL object\00", align 1
@.str.41 = private unnamed_addr constant [26 x i8] c"unable to register handle\00", align 1
@.str.45 = private unnamed_addr constant [47 x i8] c"unable to decrement ref count on VOL connector\00", align 1
@__func__.H5VL_register_using_vol_id = private unnamed_addr constant [27 x i8] c"H5VL_register_using_vol_id\00", align 1
@.str.46 = private unnamed_addr constant [34 x i8] c"can't create VOL connector object\00", align 1
@.str.47 = private unnamed_addr constant [33 x i8] c"unable to register object handle\00", align 1
@__func__.H5VL_conn_dec_rc = private unnamed_addr constant [17 x i8] c"H5VL_conn_dec_rc\00", align 1

; Function Attrs: nounwind uwtable
define i64 @H5VL_conn_dec_rc(ptr noundef %0) #0 {
  %2 = alloca ptr, align 8
  %3 = alloca i64, align 8
  %4 = alloca i8, align 1
  store ptr %0, ptr %2, align 8
  store i64 -1, ptr %3, align 8
  store i8 0, ptr %4, align 1
  %5 = load ptr, ptr %2, align 8
  %6 = getelementptr inbounds %struct.H5VL_t, ptr %5, i32 0, i32 1
  %7 = load i64, ptr %6, align 8
  %8 = add nsw i64 %7, -1
  store i64 %8, ptr %6, align 8
  %9 = load ptr, ptr %2, align 8
  %10 = getelementptr inbounds %struct.H5VL_t, ptr %9, i32 0, i32 1
  %11 = load i64, ptr %10, align 8
  %12 = icmp eq i64 0, %11
  br i1 %12, label %13, label %37

13:                                               ; preds = %1
  %14 = load ptr, ptr %2, align 8
  %15 = getelementptr inbounds %struct.H5VL_t, ptr %14, i32 0, i32 2
  %16 = load i64, ptr %15, align 8
  %17 = call i32 @H5I_dec_ref(i64 noundef %16)
  %18 = icmp slt i32 %17, 0
  br i1 %18, label %19, label %34

19:                                               ; preds = %13
  br label %20

20:                                               ; preds = %19
  br label %21

21:                                               ; preds = %20
  br label %22

22:                                               ; preds = %21
  %23 = load i64, ptr @H5E_VOL_g, align 8
  %24 = load i64, ptr @H5E_CANTDEC_g, align 8
  %25 = call i32 (ptr, ptr, i32, i64, i64, ptr, ...) @H5E_printf_stack(ptr noundef @.str.2, ptr noundef @__func__.H5VL_conn_dec_rc, i32 noundef 983, i64 noundef %23, i64 noundef %24, ptr noundef @.str.45)
  br label %26

26:                                               ; preds = %22
  store i8 1, ptr %4, align 1
  %27 = load i8, ptr %4, align 1
  %28 = trunc i8 %27 to i1
  %29 = zext i1 %28 to i8
  store i8 %29, ptr %4, align 1
  br label %30

30:                                               ; preds = %26
  br label %31

31:                                               ; preds = %30
  store i64 -1, ptr %3, align 8
  br label %42

32:                                               ; No predecessors!
  br label %33

33:                                               ; preds = %32
  br label %34

34:                                               ; preds = %33, %13
  %35 = load ptr, ptr %2, align 8
  %36 = call ptr @H5FL_reg_free(ptr noundef @H5_H5VL_t_reg_free_list, ptr noundef %35)
  store i64 0, ptr %3, align 8
  br label %41

37:                                               ; preds = %1
  %38 = load ptr, ptr %2, align 8
  %39 = getelementptr inbounds %struct.H5VL_t, ptr %38, i32 0, i32 1
  %40 = load i64, ptr %39, align 8
  store i64 %40, ptr %3, align 8
  br label %41

41:                                               ; preds = %37, %34
  br label %42

42:                                               ; preds = %41, %31
  %43 = load i64, ptr %3, align 8
  ret i64 %43
}

; Function Attrs: nounwind uwtable
define i64 @H5VL_register(i32 noundef %0, ptr noundef %1, ptr noundef %2, i1 noundef zeroext %3) #0 {
  %5 = alloca i32, align 4
  %6 = alloca ptr, align 8
  %7 = alloca ptr, align 8
  %8 = alloca i8, align 1
  %9 = alloca ptr, align 8
  %10 = alloca i64, align 8
  %11 = alloca i8, align 1
  store i32 %0, ptr %5, align 4
  store ptr %1, ptr %6, align 8
  store ptr %2, ptr %7, align 8
  %12 = zext i1 %3 to i8
  store i8 %12, ptr %8, align 1
  store ptr null, ptr %9, align 8
  store i64 -1, ptr %10, align 8
  store i8 0, ptr %11, align 1
  %13 = load i32, ptr %5, align 4
  %14 = load ptr, ptr %6, align 8
  %15 = load ptr, ptr %7, align 8
  %16 = call ptr @H5VL__new_vol_obj(i32 noundef %13, ptr noundef %14, ptr noundef %15, i1 noundef zeroext false)
  store ptr %16, ptr %9, align 8
  %17 = icmp eq ptr null, %16
  br i1 %17, label %18, label %33

18:                                               ; preds = %4
  br label %19

19:                                               ; preds = %18
  br label %20

20:                                               ; preds = %19
  br label %21

21:                                               ; preds = %20
  %22 = load i64, ptr @H5E_VOL_g, align 8
  %23 = load i64, ptr @H5E_CANTCREATE_g, align 8
  %24 = call i32 (ptr, ptr, i32, i64, i64, ptr, ...) @H5E_printf_stack(ptr noundef @.str.2, ptr noundef @__func__.H5VL_register, i32 noundef 692, i64 noundef %22, i64 noundef %23, ptr noundef @.str.40)
  br label %25

25:                                               ; preds = %21
  store i8 1, ptr %11, align 1
  %26 = load i8, ptr %11, align 1
  %27 = trunc i8 %26 to i1
  %28 = zext i1 %27 to i8
  store i8 %28, ptr %11, align 1
  br label %29

29:                                               ; preds = %25
  br label %30

30:                                               ; preds = %29
  store i64 -1, ptr %10, align 8
  br label %56

31:                                               ; No predecessors!
  br label %32

32:                                               ; preds = %31
  br label %33

33:                                               ; preds = %32, %4
  %34 = load i32, ptr %5, align 4
  %35 = load ptr, ptr %9, align 8
  %36 = load i8, ptr %8, align 1
  %37 = trunc i8 %36 to i1
  %38 = call i64 @H5I_register(i32 noundef %34, ptr noundef %35, i1 noundef zeroext %37)
  store i64 %38, ptr %10, align 8
  %39 = icmp slt i64 %38, 0
  br i1 %39, label %40, label %55

40:                                               ; preds = %33
  br label %41

41:                                               ; preds = %40
  br label %42

42:                                               ; preds = %41
  br label %43

43:                                               ; preds = %42
  %44 = load i64, ptr @H5E_VOL_g, align 8
  %45 = load i64, ptr @H5E_CANTREGISTER_g, align 8
  %46 = call i32 (ptr, ptr, i32, i64, i64, ptr, ...) @H5E_printf_stack(ptr noundef @.str.2, ptr noundef @__func__.H5VL_register, i32 noundef 696, i64 noundef %44, i64 noundef %45, ptr noundef @.str.41)
  br label %47

47:                                               ; preds = %43
  store i8 1, ptr %11, align 1
  %48 = load i8, ptr %11, align 1
  %49 = trunc i8 %48 to i1
  %50 = zext i1 %49 to i8
  store i8 %50, ptr %11, align 1
  br label %51

51:                                               ; preds = %47
  br label %52

52:                                               ; preds = %51
  store i64 -1, ptr %10, align 8
  br label %56

53:                                               ; No predecessors!
  br label %54

54:                                               ; preds = %53
  br label %55

55:                                               ; preds = %54, %33
  br label %56

56:                                               ; preds = %55, %52, %30
  %57 = load i64, ptr %10, align 8
  ret i64 %57
}

; Function Attrs: nounwind uwtable
define i64 @H5VL_register_using_vol_id(i32 noundef %0, ptr noundef %1, i64 noundef %2, i1 noundef zeroext %3) #0 {
  %5 = alloca i32, align 4
  %6 = alloca ptr, align 8
  %7 = alloca i64, align 8
  %8 = alloca i8, align 1
  %9 = alloca ptr, align 8
  %10 = alloca i64, align 8
  %11 = alloca i8, align 1
  store i32 %0, ptr %5, align 4
  store ptr %1, ptr %6, align 8
  store i64 %2, ptr %7, align 8
  %12 = zext i1 %3 to i8
  store i8 %12, ptr %8, align 1
  store ptr null, ptr %9, align 8
  store i64 -1, ptr %10, align 8
  store i8 0, ptr %11, align 1
  %13 = load i64, ptr %7, align 8
  %14 = call ptr @H5VL_new_connector(i64 noundef %13)
  store ptr %14, ptr %9, align 8
  %15 = icmp eq ptr null, %14
  br i1 %15, label %16, label %31

16:                                               ; preds = %4
  br label %17

17:                                               ; preds = %16
  br label %18

18:                                               ; preds = %17
  br label %19

19:                                               ; preds = %18
  %20 = load i64, ptr @H5E_VOL_g, align 8
  %21 = load i64, ptr @H5E_CANTCREATE_g, align 8
  %22 = call i32 (ptr, ptr, i32, i64, i64, ptr, ...) @H5E_printf_stack(ptr noundef @.str.2, ptr noundef @__func__.H5VL_register_using_vol_id, i32 noundef 819, i64 noundef %20, i64 noundef %21, ptr noundef @.str.46)
  br label %23

23:                                               ; preds = %19
  store i8 1, ptr %11, align 1
  %24 = load i8, ptr %11, align 1
  %25 = trunc i8 %24 to i1
  %26 = zext i1 %25 to i8
  store i8 %26, ptr %11, align 1
  br label %27

27:                                               ; preds = %23
  br label %28

28:                                               ; preds = %27
  store i64 -1, ptr %10, align 8
  br label %55

29:                                               ; No predecessors!
  br label %30

30:                                               ; preds = %29
  br label %31

31:                                               ; preds = %30, %4
  %32 = load i32, ptr %5, align 4
  %33 = load ptr, ptr %6, align 8
  %34 = load ptr, ptr %9, align 8
  %35 = load i8, ptr %8, align 1
  %36 = trunc i8 %35 to i1
  %37 = call i64 @H5VL_register(i32 noundef %32, ptr noundef %33, ptr noundef %34, i1 noundef zeroext %36)
  store i64 %37, ptr %10, align 8
  %38 = icmp slt i64 %37, 0
  br i1 %38, label %39, label %54

39:                                               ; preds = %31
  br label %40

40:                                               ; preds = %39
  br label %41

41:                                               ; preds = %40
  br label %42

42:                                               ; preds = %41
  %43 = load i64, ptr @H5E_VOL_g, align 8
  %44 = load i64, ptr @H5E_CANTREGISTER_g, align 8
  %45 = call i32 (ptr, ptr, i32, i64, i64, ptr, ...) @H5E_printf_stack(ptr noundef @.str.2, ptr noundef @__func__.H5VL_register_using_vol_id, i32 noundef 823, i64 noundef %43, i64 noundef %44, ptr noundef @.str.47)
  br label %46

46:                                               ; preds = %42
  store i8 1, ptr %11, align 1
  %47 = load i8, ptr %11, align 1
  %48 = trunc i8 %47 to i1
  %49 = zext i1 %48 to i8
  store i8 %49, ptr %11, align 1
  br label %50

50:                                               ; preds = %46
  br label %51

51:                                               ; preds = %50
  store i64 -1, ptr %10, align 8
  br label %55

52:                                               ; No predecessors!
  br label %53

53:                                               ; preds = %52
  br label %54

54:                                               ; preds = %53, %31
  br label %55

55:                                               ; preds = %54, %51, %28
  %56 = load i64, ptr %10, align 8
  %57 = icmp eq i64 -1, %56
  br i1 %57, label %58, label %79

58:                                               ; preds = %55
  %59 = load ptr, ptr %9, align 8
  %60 = icmp ne ptr %59, null
  br i1 %60, label %61, label %78

61:                                               ; preds = %58
  %62 = load ptr, ptr %9, align 8
  %63 = call i64 @H5VL_conn_dec_rc(ptr noundef %62)
  %64 = icmp slt i64 %63, 0
  br i1 %64, label %65, label %78

65:                                               ; preds = %61
  br label %66

66:                                               ; preds = %65
  br label %67

67:                                               ; preds = %66
  br label %68

68:                                               ; preds = %67
  %69 = load i64, ptr @H5E_VOL_g, align 8
  %70 = load i64, ptr @H5E_CANTDEC_g, align 8
  %71 = call i32 (ptr, ptr, i32, i64, i64, ptr, ...) @H5E_printf_stack(ptr noundef @.str.2, ptr noundef @__func__.H5VL_register_using_vol_id, i32 noundef 831, i64 noundef %69, i64 noundef %70, ptr noundef @.str.45)
  br label %72

72:                                               ; preds = %68
  store i8 1, ptr %11, align 1
  %73 = load i8, ptr %11, align 1
  %74 = trunc i8 %73 to i1
  %75 = zext i1 %74 to i8
  store i8 %75, ptr %11, align 1
  br label %76

76:                                               ; preds = %72
  store i64 -1, ptr %10, align 8
  br label %77

77:                                               ; preds = %76
  br label %78

78:                                               ; preds = %77, %61, %58
  br label %79

79:                                               ; preds = %78, %55
  %80 = load i64, ptr %10, align 8
  ret i64 %80
}