; Function Attrs: nounwind uwtable
define range(i64 -1, -9223372036854775808) i64 @H5VL_register_using_vol_id(i32 noundef %0, ptr noundef %1, i64 noundef %2, i1 noundef zeroext %3) local_unnamed_addr #0 {
  %5 = tail call ptr @H5VL_new_connector(i64 noundef %2)
  %6 = icmp eq ptr %5, null
  br i1 %6, label %7, label %11

7:                                                ; preds = %4
  %8 = load i64, ptr @H5E_VOL_g, align 8
  %9 = load i64, ptr @H5E_CANTCREATE_g, align 8
  %10 = tail call i32 (ptr, ptr, i32, i64, i64, ptr, ...) @H5E_printf_stack(ptr noundef nonnull @.str.2, ptr noundef nonnull @__func__.H5VL_register_using_vol_id, i32 noundef 819, i64 noundef %8, i64 noundef %9, ptr noundef nonnull @.str.46) #10
  br label %H5VL_register.exit.thread18

11:                                               ; preds = %4
  %12 = tail call fastcc ptr @H5VL__new_vol_obj(i32 noundef %0, ptr noundef %1, ptr noundef nonnull %5, i1 noundef zeroext false)
  %13 = icmp eq ptr %12, null
  br i1 %13, label %14, label %18

14:                                               ; preds = %11
  %15 = load i64, ptr @H5E_VOL_g, align 8
  %16 = load i64, ptr @H5E_CANTCREATE_g, align 8
  %17 = tail call i32 (ptr, ptr, i32, i64, i64, ptr, ...) @H5E_printf_stack(ptr noundef nonnull @.str.2, ptr noundef nonnull @__func__.H5VL_register, i32 noundef 692, i64 noundef %15, i64 noundef %16, ptr noundef nonnull @.str.40) #10
  br label %H5VL_register.exit

18:                                               ; preds = %11
  %19 = tail call i64 @H5I_register(i32 noundef %0, ptr noundef nonnull %12, i1 noundef zeroext %3) #10
  %20 = icmp slt i64 %19, 0
  br i1 %20, label %21, label %H5VL_register.exit.thread18

21:                                               ; preds = %18
  %22 = load i64, ptr @H5E_VOL_g, align 8
  %23 = load i64, ptr @H5E_CANTREGISTER_g, align 8
  %24 = tail call i32 (ptr, ptr, i32, i64, i64, ptr, ...) @H5E_printf_stack(ptr noundef nonnull @.str.2, ptr noundef nonnull @__func__.H5VL_register, i32 noundef 696, i64 noundef %22, i64 noundef %23, ptr noundef nonnull @.str.41) #10
  br label %H5VL_register.exit

H5VL_register.exit:                               ; preds = %21, %14
  %25 = load i64, ptr @H5E_VOL_g, align 8
  %26 = load i64, ptr @H5E_CANTREGISTER_g, align 8
  %27 = tail call i32 (ptr, ptr, i32, i64, i64, ptr, ...) @H5E_printf_stack(ptr noundef nonnull @.str.2, ptr noundef nonnull @__func__.H5VL_register_using_vol_id, i32 noundef 823, i64 noundef %25, i64 noundef %26, ptr noundef nonnull @.str.47) #10
  %28 = getelementptr inbounds i8, ptr %5, i64 8
  %29 = load i64, ptr %28, align 8
  %30 = add nsw i64 %29, -1
  store i64 %30, ptr %28, align 8
  %31 = icmp eq i64 %30, 0
  br i1 %31, label %32, label %H5VL_conn_dec_rc.exit

32:                                               ; preds = %H5VL_register.exit
  %33 = getelementptr inbounds i8, ptr %5, i64 16
  %34 = load i64, ptr %33, align 8
  %35 = tail call i32 @H5I_dec_ref(i64 noundef %34) #10
  %36 = icmp slt i32 %35, 0
  br i1 %36, label %H5VL_conn_dec_rc.exit.thread, label %H5VL_conn_dec_rc.exit.thread22

H5VL_conn_dec_rc.exit.thread:                     ; preds = %32
  %37 = load i64, ptr @H5E_VOL_g, align 8
  %38 = load i64, ptr @H5E_CANTDEC_g, align 8
  %39 = tail call i32 (ptr, ptr, i32, i64, i64, ptr, ...) @H5E_printf_stack(ptr noundef nonnull @.str.2, ptr noundef nonnull @__func__.H5VL_conn_dec_rc, i32 noundef 983, i64 noundef %37, i64 noundef %38, ptr noundef nonnull @.str.45) #10
  br label %42

H5VL_conn_dec_rc.exit.thread22:                   ; preds = %32
  %40 = tail call ptr @H5FL_reg_free(ptr noundef nonnull @H5_H5VL_t_reg_free_list, ptr noundef nonnull %5) #10
  br label %H5VL_register.exit.thread18

H5VL_conn_dec_rc.exit:                            ; preds = %H5VL_register.exit
  %41 = icmp slt i64 %29, 1
  br i1 %41, label %42, label %H5VL_register.exit.thread18

42:                                               ; preds = %H5VL_conn_dec_rc.exit.thread, %H5VL_conn_dec_rc.exit
  %43 = load i64, ptr @H5E_VOL_g, align 8
  %44 = load i64, ptr @H5E_CANTDEC_g, align 8
  %45 = tail call i32 (ptr, ptr, i32, i64, i64, ptr, ...) @H5E_printf_stack(ptr noundef nonnull @.str.2, ptr noundef nonnull @__func__.H5VL_register_using_vol_id, i32 noundef 831, i64 noundef %43, i64 noundef %44, ptr noundef nonnull @.str.45) #10
  br label %H5VL_register.exit.thread18

H5VL_register.exit.thread18:                      ; preds = %7, %18, %H5VL_conn_dec_rc.exit.thread22, %H5VL_conn_dec_rc.exit, %42
  %.1 = phi i64 [ -1, %42 ], [ -1, %H5VL_conn_dec_rc.exit ], [ -1, %H5VL_conn_dec_rc.exit.thread22 ], [ %19, %18 ], [ -1, %7 ]
  ret i64 %.1
}